target datalayout = "e-m:e-p270:32:32-p271:32:32-p272:64:64-i64:64-i128:128-f80:128-n8:16:32:64-S128"
target triple = "x86_64-unknown-linux-gnu"

%struct.timeval = type { i64, i64 }

@trace_events_enabled_count = external global i32, align 4
@message_with_timestamp = external global i8, align 1
@qemu_loglevel = external global i32, align 4
@_TRACE_E1000X_MAC_INDICATE_DSTATE = external global i16, align 2
@.str.22 = private unnamed_addr constant [89 x i8] c"%d@%zu.%06zu:e1000x_mac_indicate Indicating MAC to guest: %02x:%02x:%02x:%02x:%02x:%02x\0A\00", align 1
@.str.23 = private unnamed_addr constant [76 x i8] c"e1000x_mac_indicate Indicating MAC to guest: %02x:%02x:%02x:%02x:%02x:%02x\0A\00", align 1

; Function Attrs: nounwind sspstrong uwtable
define internal zeroext i1 @qemu_loglevel_mask(i32 noundef %mask) #0 {
entry:
  %mask.addr = alloca i32, align 4
  store i32 %mask, ptr %mask.addr, align 4
  %0 = load i32, ptr @qemu_loglevel, align 4
  %1 = load i32, ptr %mask.addr, align 4
  %and = and i32 %0, %1
  %cmp = icmp ne i32 %and, 0
  ret i1 %cmp
}

; Function Attrs: nounwind sspstrong uwtable
define internal void @_nocheck__trace_e1000x_mac_indicate(i8 noundef zeroext %b0, i8 noundef zeroext %b1, i8 noundef zeroext %b2, i8 noundef zeroext %b3, i8 noundef zeroext %b4, i8 noundef zeroext %b5) #0 {
entry:
  %b0.addr = alloca i8, align 1
  %b1.addr = alloca i8, align 1
  %b2.addr = alloca i8, align 1
  %b3.addr = alloca i8, align 1
  %b4.addr = alloca i8, align 1
  %b5.addr = alloca i8, align 1
  %_now = alloca %struct.timeval, align 8
  store i8 %b0, ptr %b0.addr, align 1
  store i8 %b1, ptr %b1.addr, align 1
  store i8 %b2, ptr %b2.addr, align 1
  store i8 %b3, ptr %b3.addr, align 1
  store i8 %b4, ptr %b4.addr, align 1
  store i8 %b5, ptr %b5.addr, align 1
  %0 = load i32, ptr @trace_events_enabled_count, align 4
  %tobool = icmp ne i32 %0, 0
  %lnot = xor i1 %tobool, true
  %lnot1 = xor i1 %lnot, true
  %lnot.ext = zext i1 %lnot1 to i32
  %conv = sext i32 %lnot.ext to i64
  %tobool2 = icmp ne i64 %conv, 0
  br i1 %tobool2, label %land.lhs.true, label %if.end23

land.lhs.true:                                    ; preds = %entry
  %1 = load i16, ptr @_TRACE_E1000X_MAC_INDICATE_DSTATE, align 2
  %conv3 = zext i16 %1 to i32
  %tobool4 = icmp ne i32 %conv3, 0
  br i1 %tobool4, label %land.lhs.true5, label %if.end23

land.lhs.true5:                                   ; preds = %land.lhs.true
  %call = call zeroext i1 @qemu_loglevel_mask(i32 noundef 32768)
  br i1 %call, label %if.then, label %if.end23

if.then:                                          ; preds = %land.lhs.true5
  %2 = load i8, ptr @message_with_timestamp, align 1
  %tobool7 = trunc i8 %2 to i1
  br i1 %tobool7, label %if.then8, label %if.else

if.then8:                                         ; preds = %if.then
  %call9 = call i32 @gettimeofday(ptr noundef %_now, ptr noundef null) #7
  %call10 = call i32 @qemu_get_thread_id()
  %tv_sec = getelementptr inbounds %struct.timeval, ptr %_now, i32 0, i32 0
  %3 = load i64, ptr %tv_sec, align 8
  %tv_usec = getelementptr inbounds %struct.timeval, ptr %_now, i32 0, i32 1
  %4 = load i64, ptr %tv_usec, align 8
  %5 = load i8, ptr %b0.addr, align 1
  %conv11 = zext i8 %5 to i32
  %6 = load i8, ptr %b1.addr, align 1
  %conv12 = zext i8 %6 to i32
  %7 = load i8, ptr %b2.addr, align 1
  %conv13 = zext i8 %7 to i32
  %8 = load i8, ptr %b3.addr, align 1
  %conv14 = zext i8 %8 to i32
  %9 = load i8, ptr %b4.addr, align 1
  %conv15 = zext i8 %9 to i32
  %10 = load i8, ptr %b5.addr, align 1
  %conv16 = zext i8 %10 to i32
  call void (ptr, ...) @qemu_log(ptr noundef @.str.22, i32 noundef %call10, i64 noundef %3, i64 noundef %4, i32 noundef %conv11, i32 noundef %conv12, i32 noundef %conv13, i32 noundef %conv14, i32 noundef %conv15, i32 noundef %conv16)
  br label %if.end

if.else:                                          ; preds = %if.then
  %11 = load i8, ptr %b0.addr, align 1
  %conv17 = zext i8 %11 to i32
  %12 = load i8, ptr %b1.addr, align 1
  %conv18 = zext i8 %12 to i32
  %13 = load i8, ptr %b2.addr, align 1
  %conv19 = zext i8 %13 to i32
  %14 = load i8, ptr %b3.addr, align 1
  %conv20 = zext i8 %14 to i32
  %15 = load i8, ptr %b4.addr, align 1
  %conv21 = zext i8 %15 to i32
  %16 = load i8, ptr %b5.addr, align 1
  %conv22 = zext i8 %16 to i32
  call void (ptr, ...) @qemu_log(ptr noundef @.str.23, i32 noundef %conv17, i32 noundef %conv18, i32 noundef %conv19, i32 noundef %conv20, i32 noundef %conv21, i32 noundef %conv22)
  br label %if.end

if.end:                                           ; preds = %if.else, %if.then8
  br label %if.end23

if.end23:                                         ; preds = %if.end, %land.lhs.true5, %land.lhs.true, %entry
  ret void
}

; Function Attrs: nounwind sspstrong uwtable
define internal void @trace_e1000x_mac_indicate(i8 noundef zeroext %b0, i8 noundef zeroext %b1, i8 noundef zeroext %b2, i8 noundef zeroext %b3, i8 noundef zeroext %b4, i8 noundef zeroext %b5) #0 {
entry:
  %b0.addr = alloca i8, align 1
  %b1.addr = alloca i8, align 1
  %b2.addr = alloca i8, align 1
  %b3.addr = alloca i8, align 1
  %b4.addr = alloca i8, align 1
  %b5.addr = alloca i8, align 1
  store i8 %b0, ptr %b0.addr, align 1
  store i8 %b1, ptr %b1.addr, align 1
  store i8 %b2, ptr %b2.addr, align 1
  store i8 %b3, ptr %b3.addr, align 1
  store i8 %b4, ptr %b4.addr, align 1
  store i8 %b5, ptr %b5.addr, align 1
  %0 = load i8, ptr %b0.addr, align 1
  %1 = load i8, ptr %b1.addr, align 1
  %2 = load i8, ptr %b2.addr, align 1
  %3 = load i8, ptr %b3.addr, align 1
  %4 = load i8, ptr %b4.addr, align 1
  %5 = load i8, ptr %b5.addr, align 1
  call void @_nocheck__trace_e1000x_mac_indicate(i8 noundef zeroext %0, i8 noundef zeroext %1, i8 noundef zeroext %2, i8 noundef zeroext %3, i8 noundef zeroext %4, i8 noundef zeroext %5)
  ret void
}

; Function Attrs: nounwind sspstrong uwtable
define dso_local void @e1000x_reset_mac_addr(ptr noundef %nic, ptr noundef %mac_regs, ptr noundef %mac_addr) #0 {
entry:
  %nic.addr = alloca ptr, align 8
  %mac_regs.addr = alloca ptr, align 8
  %mac_addr.addr = alloca ptr, align 8
  %i = alloca i32, align 4
  store ptr %nic, ptr %nic.addr, align 8
  store ptr %mac_regs, ptr %mac_regs.addr, align 8
  store ptr %mac_addr, ptr %mac_addr.addr, align 8
  %0 = load ptr, ptr %mac_regs.addr, align 8
  %arrayidx = getelementptr i32, ptr %0, i64 5376
  store i32 0, ptr %arrayidx, align 4
  %1 = load ptr, ptr %mac_regs.addr, align 8
  %arrayidx1 = getelementptr i32, ptr %1, i64 5377
  store i32 -2147483648, ptr %arrayidx1, align 4
  store i32 0, ptr %i, align 4
  br label %for.cond

for.cond:                                         ; preds = %for.inc, %entry
  %2 = load i32, ptr %i, align 4
  %cmp = icmp slt i32 %2, 4
  br i1 %cmp, label %for.body, label %for.end

for.body:                                         ; preds = %for.cond
  %3 = load ptr, ptr %mac_addr.addr, align 8
  %4 = load i32, ptr %i, align 4
  %idxprom = sext i32 %4 to i64
  %arrayidx2 = getelementptr i8, ptr %3, i64 %idxprom
  %5 = load i8, ptr %arrayidx2, align 1
  %conv = zext i8 %5 to i32
  %6 = load i32, ptr %i, align 4
  %mul = mul i32 8, %6
  %shl = shl i32 %conv, %mul
  %7 = load ptr, ptr %mac_regs.addr, align 8
  %arrayidx3 = getelementptr i32, ptr %7, i64 5376
  %8 = load i32, ptr %arrayidx3, align 4
  %or = or i32 %8, %shl
  store i32 %or, ptr %arrayidx3, align 4
  %9 = load i32, ptr %i, align 4
  %cmp4 = icmp slt i32 %9, 2
  br i1 %cmp4, label %cond.true, label %cond.false

cond.true:                                        ; preds = %for.body
  %10 = load ptr, ptr %mac_addr.addr, align 8
  %11 = load i32, ptr %i, align 4
  %add = add i32 %11, 4
  %idxprom6 = sext i32 %add to i64
  %arrayidx7 = getelementptr i8, ptr %10, i64 %idxprom6
  %12 = load i8, ptr %arrayidx7, align 1
  %conv8 = zext i8 %12 to i32
  %13 = load i32, ptr %i, align 4
  %mul9 = mul i32 8, %13
  %shl10 = shl i32 %conv8, %mul9
  br label %cond.end

cond.false:                                       ; preds = %for.body
  br label %cond.end

cond.end:                                         ; preds = %cond.false, %cond.true
  %cond = phi i32 [ %shl10, %cond.true ], [ 0, %cond.false ]
  %14 = load ptr, ptr %mac_regs.addr, align 8
  %arrayidx11 = getelementptr i32, ptr %14, i64 5377
  %15 = load i32, ptr %arrayidx11, align 4
  %or12 = or i32 %15, %cond
  store i32 %or12, ptr %arrayidx11, align 4
  br label %for.inc

for.inc:                                          ; preds = %cond.end
  %16 = load i32, ptr %i, align 4
  %inc = add i32 %16, 1
  store i32 %inc, ptr %i, align 4
  br label %for.cond, !llvm.loop !7

for.end:                                          ; preds = %for.cond
  %17 = load ptr, ptr %nic.addr, align 8
  %call = call ptr @qemu_get_queue(ptr noundef %17)
  %18 = load ptr, ptr %mac_addr.addr, align 8
  call void @qemu_format_nic_info_str(ptr noundef %call, ptr noundef %18)
  %19 = load ptr, ptr %mac_addr.addr, align 8
  %arrayidx13 = getelementptr i8, ptr %19, i64 0
  %20 = load i8, ptr %arrayidx13, align 1
  %21 = load ptr, ptr %mac_addr.addr, align 8
  %arrayidx14 = getelementptr i8, ptr %21, i64 1
  %22 = load i8, ptr %arrayidx14, align 1
  %23 = load ptr, ptr %mac_addr.addr, align 8
  %arrayidx15 = getelementptr i8, ptr %23, i64 2
  %24 = load i8, ptr %arrayidx15, align 1
  %25 = load ptr, ptr %mac_addr.addr, align 8
  %arrayidx16 = getelementptr i8, ptr %25, i64 3
  %26 = load i8, ptr %arrayidx16, align 1
  %27 = load ptr, ptr %mac_addr.addr, align 8
  %arrayidx17 = getelementptr i8, ptr %27, i64 4
  %28 = load i8, ptr %arrayidx17, align 1
  %29 = load ptr, ptr %mac_addr.addr, align 8
  %arrayidx18 = getelementptr i8, ptr %29, i64 5
  %30 = load i8, ptr %arrayidx18, align 1
  call void @trace_e1000x_mac_indicate(i8 noundef zeroext %20, i8 noundef zeroext %22, i8 noundef zeroext %24, i8 noundef zeroext %26, i8 noundef zeroext %28, i8 noundef zeroext %30)
  ret void
}