; Function Attrs: nounwind sspstrong uwtable
define dso_local void @e1000x_reset_mac_addr(ptr noundef %nic, ptr noundef writeonly captures(none) initializes((21504, 21512)) %mac_regs, ptr noundef %mac_addr) local_unnamed_addr #0 {
entry:
  %_now.i.i = alloca %struct.timeval, align 8
  %arrayidx = getelementptr i8, ptr %mac_regs, i64 21504
  store i32 0, ptr %arrayidx, align 4
  %arrayidx1 = getelementptr i8, ptr %mac_regs, i64 21508
  store i32 -2147483648, ptr %arrayidx1, align 4
  br label %for.body

for.body:                                         ; preds = %entry, %cond.end
  %indvars.iv = phi i64 [ 0, %entry ], [ %indvars.iv.next, %cond.end ]
  %or1821 = phi i32 [ 0, %entry ], [ %or, %cond.end ]
  %or121920 = phi i32 [ -2147483648, %entry ], [ %or12, %cond.end ]
  %arrayidx2 = getelementptr i8, ptr %mac_addr, i64 %indvars.iv
  %0 = load i8, ptr %arrayidx2, align 1
  %conv = zext i8 %0 to i32
  %indvars.iv.tr = trunc i64 %indvars.iv to i32
  %1 = shl i32 %indvars.iv.tr, 3
  %shl = shl nuw i32 %conv, %1
  %or = or i32 %shl, %or1821
  store i32 %or, ptr %arrayidx, align 4
  %cmp4 = icmp samesign ult i64 %indvars.iv, 2
  br i1 %cmp4, label %cond.true, label %cond.end

cond.true:                                        ; preds = %for.body
  %2 = or disjoint i64 %indvars.iv, 4
  %arrayidx7 = getelementptr i8, ptr %mac_addr, i64 %2
  %3 = load i8, ptr %arrayidx7, align 1
  %conv8 = zext i8 %3 to i32
  %shl10 = shl nuw nsw i32 %conv8, %1
  br label %cond.end

cond.end:                                         ; preds = %for.body, %cond.true
  %cond = phi i32 [ %shl10, %cond.true ], [ 0, %for.body ]
  %or12 = or i32 %or121920, %cond
  store i32 %or12, ptr %arrayidx1, align 4
  %indvars.iv.next = add nuw nsw i64 %indvars.iv, 1
  %exitcond.not = icmp eq i64 %indvars.iv.next, 4
  br i1 %exitcond.not, label %for.end, label %for.body, !llvm.loop !7

for.end:                                          ; preds = %cond.end
  %call = tail call ptr @qemu_get_queue(ptr noundef %nic) #11
  tail call void @qemu_format_nic_info_str(ptr noundef %call, ptr noundef nonnull %mac_addr) #11
  %4 = load i8, ptr %mac_addr, align 1
  %arrayidx14 = getelementptr i8, ptr %mac_addr, i64 1
  %5 = load i8, ptr %arrayidx14, align 1
  %arrayidx15 = getelementptr i8, ptr %mac_addr, i64 2
  %6 = load i8, ptr %arrayidx15, align 1
  %arrayidx16 = getelementptr i8, ptr %mac_addr, i64 3
  %7 = load i8, ptr %arrayidx16, align 1
  %arrayidx17 = getelementptr i8, ptr %mac_addr, i64 4
  %8 = load i8, ptr %arrayidx17, align 1
  %arrayidx18 = getelementptr i8, ptr %mac_addr, i64 5
  %9 = load i8, ptr %arrayidx18, align 1
  call void @llvm.lifetime.start.p0(i64 16, ptr nonnull %_now.i.i)
  %10 = load i32, ptr @trace_events_enabled_count, align 4
  %tobool.i.i = icmp ne i32 %10, 0
  %11 = load i16, ptr @_TRACE_E1000X_MAC_INDICATE_DSTATE, align 2
  %tobool4.i.i = icmp ne i16 %11, 0
  %or.cond.i.i = select i1 %tobool.i.i, i1 %tobool4.i.i, i1 false
  br i1 %or.cond.i.i, label %land.lhs.true5.i.i, label %trace_e1000x_mac_indicate.exit

land.lhs.true5.i.i:                               ; preds = %for.end
  %12 = load i32, ptr @qemu_loglevel, align 4
  %and.i.i.i = and i32 %12, 32768
  %cmp.i.not.i.i = icmp eq i32 %and.i.i.i, 0
  br i1 %cmp.i.not.i.i, label %trace_e1000x_mac_indicate.exit, label %if.then.i.i

if.then.i.i:                                      ; preds = %land.lhs.true5.i.i
  %13 = load i8, ptr @message_with_timestamp, align 1
  %tobool7.i.i = trunc i8 %13 to i1
  br i1 %tobool7.i.i, label %if.then8.i.i, label %if.else.i.i

if.then8.i.i:                                     ; preds = %if.then.i.i
  %call9.i.i = call i32 @gettimeofday(ptr noundef nonnull %_now.i.i, ptr noundef null) #11
  %call10.i.i = tail call i32 @qemu_get_thread_id() #11
  %14 = load i64, ptr %_now.i.i, align 8
  %tv_usec.i.i = getelementptr inbounds nuw i8, ptr %_now.i.i, i64 8
  %15 = load i64, ptr %tv_usec.i.i, align 8
  %conv11.i.i = zext i8 %4 to i32
  %conv12.i.i = zext i8 %5 to i32
  %conv13.i.i = zext i8 %6 to i32
  %conv14.i.i = zext i8 %7 to i32
  %conv15.i.i = zext i8 %8 to i32
  %conv16.i.i = zext i8 %9 to i32
  tail call void (ptr, ...) @qemu_log(ptr noundef nonnull @.str.22, i32 noundef %call10.i.i, i64 noundef %14, i64 noundef %15, i32 noundef %conv11.i.i, i32 noundef %conv12.i.i, i32 noundef %conv13.i.i, i32 noundef %conv14.i.i, i32 noundef %conv15.i.i, i32 noundef %conv16.i.i) #11
  br label %trace_e1000x_mac_indicate.exit

if.else.i.i:                                      ; preds = %if.then.i.i
  %conv17.i.i = zext i8 %4 to i32
  %conv18.i.i = zext i8 %5 to i32
  %conv19.i.i = zext i8 %6 to i32
  %conv20.i.i = zext i8 %7 to i32
  %conv21.i.i = zext i8 %8 to i32
  %conv22.i.i = zext i8 %9 to i32
  tail call void (ptr, ...) @qemu_log(ptr noundef nonnull @.str.23, i32 noundef %conv17.i.i, i32 noundef %conv18.i.i, i32 noundef %conv19.i.i, i32 noundef %conv20.i.i, i32 noundef %conv21.i.i, i32 noundef %conv22.i.i) #11
  br label %trace_e1000x_mac_indicate.exit

trace_e1000x_mac_indicate.exit:                   ; preds = %for.end, %land.lhs.true5.i.i, %if.then8.i.i, %if.else.i.i
  call void @llvm.lifetime.end.p0(i64 16, ptr nonnull %_now.i.i)
  ret void
}